target datalayout = "e-m:e-p270:32:32-p271:32:32-p272:64:64-i64:64-i128:128-f80:128-n8:16:32:64-S128"
target triple = "x86_64-pc-linux-gnu"

%union.SourceSpan = type { i64 }
%struct.GenContext_ = type { i8, ptr, ptr, ptr, ptr, ptr, ptr, ptr, ptr, ptr, ptr, ptr, ptr, ptr, ptr, ptr, ptr, ptr, ptr, ptr, ptr, ptr, ptr, ptr, ptr, ptr, ptr, ptr, ptr, ptr, ptr, ptr, ptr, %struct.anon.85, i32, i32, %struct.DebugContext, ptr, ptr, ptr, %struct.BEValue, i8, %union.SourceSpan, ptr, ptr, ptr, ptr }
%struct.anon.85 = type { ptr, ptr, ptr }
%struct.DebugContext = type { i16, ptr, ptr, %struct.DebugFile_, ptr, ptr, ptr, ptr }
%struct.DebugFile_ = type { i16, ptr }
%struct.BEValue = type { i8, i32, ptr, ptr, ptr }
%struct.FunctionPrototype_ = type { i16, i16, ptr, ptr, ptr, ptr, ptr, ptr, ptr, ptr, ptr, ptr, ptr }
%struct.Type_ = type { i32, ptr, ptr, ptr, %union.anon.97, ptr, ptr, %union.anon.99 }
%union.anon.97 = type { ptr }
%union.anon.99 = type { %struct.TypeFunction }
%struct.TypeFunction = type { ptr, ptr, ptr }

@type_void = external global ptr, align 8
@type_anyfault = external global ptr, align 8

; Function Attrs: nounwind uwtable
define dso_local void @llvm_emit_return_implicit(ptr noundef %0) #0 {
  %2 = alloca i1, align 1
  %3 = alloca ptr, align 8
  %4 = alloca i32, align 4
  %5 = alloca ptr, align 8
  %6 = alloca ptr, align 8
  %7 = alloca ptr, align 8
  %8 = alloca ptr, align 8
  %9 = alloca ptr, align 8
  %10 = alloca ptr, align 8
  %11 = alloca %struct.BEValue, align 8
  store ptr %0, ptr %9, align 8
  %12 = load ptr, ptr %9, align 8
  %13 = getelementptr inbounds %struct.GenContext_, ptr %12, i32 0, i32 33
  %14 = getelementptr inbounds %struct.anon.85, ptr %13, i32 0, i32 1
  %15 = load ptr, ptr %14, align 8
  %16 = icmp ne ptr %15, null
  br i1 %16, label %17, label %24

17:                                               ; preds = %1
  %18 = load ptr, ptr %9, align 8
  %19 = getelementptr inbounds %struct.GenContext_, ptr %18, i32 0, i32 33
  %20 = getelementptr inbounds %struct.anon.85, ptr %19, i32 0, i32 1
  %21 = load ptr, ptr %20, align 8
  %22 = getelementptr inbounds %struct.FunctionPrototype_, ptr %21, i32 0, i32 2
  %23 = load ptr, ptr %22, align 8
  br label %26

24:                                               ; preds = %1
  %25 = load ptr, ptr @type_void, align 8
  br label %26

26:                                               ; preds = %24, %17
  %27 = phi ptr [ %23, %17 ], [ %25, %24 ]
  store ptr %27, ptr %10, align 8
  %28 = load ptr, ptr %10, align 8
  store ptr %28, ptr %6, align 8
  %29 = load ptr, ptr %6, align 8
  %30 = icmp ne ptr %29, null
  br i1 %30, label %32, label %31

31:                                               ; preds = %26
  store ptr null, ptr %5, align 8
  br label %42

32:                                               ; preds = %26
  %33 = load ptr, ptr %6, align 8
  %34 = load i32, ptr %33, align 8
  %35 = icmp eq i32 %34, 40
  br i1 %35, label %36, label %40

36:                                               ; preds = %32
  %37 = load ptr, ptr %6, align 8
  %38 = getelementptr inbounds %struct.Type_, ptr %37, i32 0, i32 7
  %39 = load ptr, ptr %38, align 8
  store ptr %39, ptr %5, align 8
  br label %42

40:                                               ; preds = %32
  %41 = load ptr, ptr %6, align 8
  store ptr %41, ptr %5, align 8
  br label %42

42:                                               ; preds = %40, %36, %31
  %43 = load ptr, ptr %5, align 8
  %44 = call ptr @type_lowering(ptr noundef %43)
  %45 = load ptr, ptr @type_void, align 8
  %46 = icmp ne ptr %44, %45
  br i1 %46, label %47, label %52

47:                                               ; preds = %42
  %48 = load ptr, ptr %9, align 8
  %49 = getelementptr inbounds %struct.GenContext_, ptr %48, i32 0, i32 8
  %50 = load ptr, ptr %49, align 8
  %51 = call ptr @LLVMBuildUnreachable(ptr noundef %50)
  br label %83

52:                                               ; preds = %42
  %53 = load ptr, ptr %10, align 8
  store ptr %53, ptr %3, align 8
  %54 = load ptr, ptr %3, align 8
  %55 = icmp ne ptr %54, null
  br i1 %55, label %57, label %56

56:                                               ; preds = %52
  store i1 false, ptr %2, align 1
  br label %70

57:                                               ; preds = %52
  %58 = load ptr, ptr %3, align 8
  %59 = load i32, ptr %58, align 8
  store i32 %59, ptr %4, align 4
  %60 = load i32, ptr %4, align 4
  %61 = icmp eq i32 %60, 31
  br i1 %61, label %62, label %67

62:                                               ; preds = %57
  %63 = load ptr, ptr %3, align 8
  %64 = getelementptr inbounds %struct.Type_, ptr %63, i32 0, i32 1
  %65 = load ptr, ptr %64, align 8
  %66 = load i32, ptr %65, align 8
  store i32 %66, ptr %4, align 4
  br label %67

67:                                               ; preds = %62, %57
  %68 = load i32, ptr %4, align 4
  %69 = icmp eq i32 %68, 40
  store i1 %69, ptr %2, align 1
  br label %70

70:                                               ; preds = %67, %56
  %71 = load i1, ptr %2, align 1
  br i1 %71, label %72, label %74

72:                                               ; preds = %70
  %73 = load ptr, ptr %9, align 8
  call void @llvm_emit_return_abi(ptr noundef %73, ptr noundef null, ptr noundef null)
  br label %83

74:                                               ; preds = %70
  %75 = load ptr, ptr %9, align 8
  %76 = load ptr, ptr @type_anyfault, align 8
  store ptr %75, ptr %7, align 8
  store ptr %76, ptr %8, align 8
  %77 = load ptr, ptr %7, align 8
  %78 = load ptr, ptr %8, align 8
  %79 = call ptr @llvm_get_type(ptr noundef %77, ptr noundef %78) #4
  %80 = call ptr @LLVMConstNull(ptr noundef %79) #4
  %81 = load ptr, ptr @type_anyfault, align 8
  call void @llvm_value_set(ptr noundef %11, ptr noundef %80, ptr noundef %81)
  %82 = load ptr, ptr %9, align 8
  call void @llvm_emit_return_abi(ptr noundef %82, ptr noundef null, ptr noundef %11)
  br label %83

83:                                               ; preds = %74, %72, %47
  ret void
}