; Function Attrs: nounwind uwtable
define dso_local void @llvm_emit_return_implicit(ptr noundef %0) local_unnamed_addr #0 {
  %2 = alloca %struct.BEValue, align 8
  %3 = getelementptr inbounds i8, ptr %0, i64 272
  %4 = load ptr, ptr %3, align 8
  %.not = icmp eq ptr %4, null
  %5 = getelementptr inbounds i8, ptr %4, i64 8
  %.in = select i1 %.not, ptr @type_void, ptr %5
  %6 = load ptr, ptr %.in, align 8
  %.not25 = icmp eq ptr %6, null
  br i1 %.not25, label %.thread, label %7

7:                                                ; preds = %1
  %8 = load i32, ptr %6, align 8
  %9 = icmp eq i32 %8, 40
  br i1 %9, label %10, label %13

10:                                               ; preds = %7
  %11 = getelementptr inbounds i8, ptr %6, i64 56
  %12 = load ptr, ptr %11, align 8
  br label %13

13:                                               ; preds = %7, %10
  %.021 = phi ptr [ %12, %10 ], [ %6, %7 ]
  %14 = tail call fastcc ptr @type_lowering(ptr noundef %.021)
  %15 = load ptr, ptr @type_void, align 8
  %.not26 = icmp eq ptr %14, %15
  br i1 %.not26, label %22, label %18

.thread:                                          ; preds = %1
  %16 = tail call fastcc ptr @type_lowering(ptr noundef null)
  %17 = load ptr, ptr @type_void, align 8
  %.not2628 = icmp eq ptr %16, %17
  br i1 %.not2628, label %.critedge, label %18

18:                                               ; preds = %.thread, %13
  %19 = getelementptr inbounds i8, ptr %0, i64 64
  %20 = load ptr, ptr %19, align 8
  %21 = tail call ptr @LLVMBuildUnreachable(ptr noundef %20) #7
  br label %36

22:                                               ; preds = %13
  %23 = load i32, ptr %6, align 8
  %24 = icmp eq i32 %23, 31
  br i1 %24, label %25, label %29

25:                                               ; preds = %22
  %26 = getelementptr inbounds i8, ptr %6, i64 8
  %27 = load ptr, ptr %26, align 8
  %28 = load i32, ptr %27, align 8
  br label %29

29:                                               ; preds = %25, %22
  %.020 = phi i32 [ %28, %25 ], [ %23, %22 ]
  %30 = icmp eq i32 %.020, 40
  br i1 %30, label %31, label %.critedge

31:                                               ; preds = %29
  tail call void @llvm_emit_return_abi(ptr noundef nonnull %0, ptr noundef null, ptr noundef null)
  br label %36

.critedge:                                        ; preds = %.thread, %29
  %32 = load ptr, ptr @type_anyfault, align 8
  %33 = tail call ptr @llvm_get_type(ptr noundef nonnull %0, ptr noundef %32) #7
  %34 = tail call ptr @LLVMConstNull(ptr noundef %33) #7
  %35 = load ptr, ptr @type_anyfault, align 8
  call void @llvm_value_set(ptr noundef nonnull %2, ptr noundef %34, ptr noundef %35) #7
  call void @llvm_emit_return_abi(ptr noundef nonnull %0, ptr noundef null, ptr noundef nonnull %2)
  br label %36

36:                                               ; preds = %.critedge, %31, %18
  ret void
}